target datalayout = "e-m:e-p270:32:32-p271:32:32-p272:64:64-i64:64-i128:128-f80:128-n8:16:32:64-S128"
target triple = "x86_64-pc-linux-gnu"

%struct.archive_entry = type { ptr, ptr, i32, %struct.aest, i32, %struct.archive_mstring, i64, i64, %struct.archive_mstring, %struct.archive_mstring, %struct.archive_mstring, %struct.archive_mstring, %struct.archive_mstring, i8, ptr, i64, %struct.ae_digest, %struct.archive_acl, ptr, ptr, ptr, ptr, ptr, [12 x i8], i32 }
%struct.aest = type { i64, i32, i64, i32, i64, i32, i64, i32, i64, i64, i32, i64, i64, i32, i64, i64, i64, i32, i64, i64, i64 }
%struct.archive_mstring = type { %struct.archive_string, %struct.archive_string, %struct.archive_wstring, %struct.archive_string, i32 }
%struct.archive_wstring = type { ptr, i64, i64 }
%struct.archive_string = type { ptr, i64, i64 }
%struct.ae_digest = type { [16 x i8], [20 x i8], [20 x i8], [32 x i8], [48 x i8], [64 x i8] }
%struct.archive_acl = type { i32, ptr, ptr, i32, ptr, ptr, i32 }

; Function Attrs: nounwind uwtable
define dso_local void @archive_entry_copy_symlink_w(ptr noundef %0, ptr noundef %1) #0 {
  %3 = alloca ptr, align 8
  %4 = alloca ptr, align 8
  store ptr %0, ptr %3, align 8, !tbaa !4
  store ptr %1, ptr %4, align 8, !tbaa !79
  %5 = load ptr, ptr %4, align 8, !tbaa !79
  %6 = icmp eq ptr %5, null
  br i1 %6, label %7, label %14

7:                                                ; preds = %2
  %8 = load ptr, ptr %3, align 8, !tbaa !4
  %9 = getelementptr inbounds nuw %struct.archive_entry, ptr %8, i32 0, i32 4
  %10 = load i32, ptr %9, align 8, !tbaa !35
  %11 = and i32 %10, 1
  %12 = icmp ne i32 %11, 0
  br i1 %12, label %13, label %14

13:                                               ; preds = %7
  br label %35

14:                                               ; preds = %7, %2
  %15 = load ptr, ptr %3, align 8, !tbaa !4
  %16 = getelementptr inbounds nuw %struct.archive_entry, ptr %15, i32 0, i32 9
  %17 = load ptr, ptr %4, align 8, !tbaa !79
  %18 = call i32 @archive_mstring_copy_wcs(ptr noundef %16, ptr noundef %17)
  %19 = load ptr, ptr %3, align 8, !tbaa !4
  %20 = getelementptr inbounds nuw %struct.archive_entry, ptr %19, i32 0, i32 4
  %21 = load i32, ptr %20, align 8, !tbaa !35
  %22 = and i32 %21, -2
  store i32 %22, ptr %20, align 8, !tbaa !35
  %23 = load ptr, ptr %4, align 8, !tbaa !79
  %24 = icmp eq ptr %23, null
  br i1 %24, label %25, label %30

25:                                               ; preds = %14
  %26 = load ptr, ptr %3, align 8, !tbaa !4
  %27 = getelementptr inbounds nuw %struct.archive_entry, ptr %26, i32 0, i32 4
  %28 = load i32, ptr %27, align 8, !tbaa !35
  %29 = and i32 %28, -3
  store i32 %29, ptr %27, align 8, !tbaa !35
  br label %35

30:                                               ; preds = %14
  %31 = load ptr, ptr %3, align 8, !tbaa !4
  %32 = getelementptr inbounds nuw %struct.archive_entry, ptr %31, i32 0, i32 4
  %33 = load i32, ptr %32, align 8, !tbaa !35
  %34 = or i32 %33, 2
  store i32 %34, ptr %32, align 8, !tbaa !35
  br label %35

35:                                               ; preds = %13, %30, %25
  ret void
}